target datalayout = "e-m:e-p270:32:32-p271:32:32-p272:64:64-i64:64-i128:128-f80:128-n8:16:32:64-S128"
target triple = "x86_64-pc-linux-gnu"

%"struct.Luau::CodeGen::CompilationResult" = type { i32, %"class.std::vector.60" }
%"class.std::vector.60" = type { %"struct.std::_Vector_base.61" }
%"struct.std::_Vector_base.61" = type { %"struct.std::_Vector_base<Luau::CodeGen::ProtoCompilationFailure, std::allocator<Luau::CodeGen::ProtoCompilationFailure>>::_Vector_impl" }
%"struct.std::_Vector_base<Luau::CodeGen::ProtoCompilationFailure, std::allocator<Luau::CodeGen::ProtoCompilationFailure>>::_Vector_impl" = type { %"struct.std::_Vector_base<Luau::CodeGen::ProtoCompilationFailure, std::allocator<Luau::CodeGen::ProtoCompilationFailure>>::_Vector_impl_data" }
%"struct.std::_Vector_base<Luau::CodeGen::ProtoCompilationFailure, std::allocator<Luau::CodeGen::ProtoCompilationFailure>>::_Vector_impl_data" = type { ptr, ptr, ptr }
%"class.std::optional.38" = type { %"struct.std::_Optional_base.39" }
%"struct.std::_Optional_base.39" = type { %"struct.std::_Optional_payload.41" }
%"struct.std::_Optional_payload.41" = type { %"struct.std::_Optional_payload_base.42" }
%"struct.std::_Optional_payload_base.42" = type { %"union.std::_Optional_payload_base<std::array<unsigned char, 16>>::_Storage", i8 }
%"union.std::_Optional_payload_base<std::array<unsigned char, 16>>::_Storage" = type { %"struct.std::array" }
%"struct.std::array" = type { [16 x i8] }
%"struct.Luau::CodeGen::CompilationOptions" = type { i32, %"struct.Luau::CodeGen::HostIrHooks", ptr }
%"struct.Luau::CodeGen::HostIrHooks" = type { ptr, ptr, ptr, ptr, ptr, ptr, ptr, ptr, ptr, ptr }

; Function Attrs: mustprogress nounwind uwtable
define linkonce_odr dso_local void @_ZNSt22_Optional_payload_baseISt5arrayIhLm16EEE8_StorageIS1_Lb1EEC2IJRKS1_EEESt10in_place_tDpOT_(ptr noundef nonnull align 1 dereferenceable(16) %0, ptr noundef nonnull align 1 dereferenceable(16) %1) unnamed_addr #1 comdat align 2 {
  %3 = alloca ptr, align 8
  %4 = alloca ptr, align 8
  store ptr %0, ptr %3, align 8, !tbaa !912
  store ptr %1, ptr %4, align 8, !tbaa !142
  %5 = load ptr, ptr %3, align 8
  %6 = load ptr, ptr %4, align 8, !tbaa !142
  call void @llvm.memcpy.p0.p0.i64(ptr align 1 %5, ptr align 1 %6, i64 16, i1 false), !tbaa.struct !914
  ret void
}

; Function Attrs: mustprogress uwtable
define linkonce_odr dso_local void @_ZNSt22_Optional_payload_baseISt5arrayIhLm16EEEC2IJRKS1_EEESt10in_place_tDpOT_(ptr noundef nonnull align 1 dereferenceable(17) %0, ptr noundef nonnull align 1 dereferenceable(16) %1) unnamed_addr #2 comdat align 2 {
  %3 = alloca ptr, align 8
  %4 = alloca ptr, align 8
  store ptr %0, ptr %3, align 8, !tbaa !352
  store ptr %1, ptr %4, align 8, !tbaa !142
  %5 = load ptr, ptr %3, align 8
  %6 = getelementptr inbounds nuw %"struct.std::_Optional_payload_base.42", ptr %5, i32 0, i32 0
  %7 = load ptr, ptr %4, align 8, !tbaa !142
  call void @_ZNSt22_Optional_payload_baseISt5arrayIhLm16EEE8_StorageIS1_Lb1EEC2IJRKS1_EEESt10in_place_tDpOT_(ptr noundef nonnull align 1 dereferenceable(16) %6, ptr noundef nonnull align 1 dereferenceable(16) %7)
  %8 = getelementptr inbounds nuw %"struct.std::_Optional_payload_base.42", ptr %5, i32 0, i32 1
  store i8 1, ptr %8, align 1, !tbaa !350
  ret void
}

; Function Attrs: inlinehint mustprogress uwtable
define linkonce_odr dso_local void @_ZNSt17_Optional_payloadISt5arrayIhLm16EELb1ELb1ELb1EECI2St22_Optional_payload_baseIS1_EIJRKS1_EEESt10in_place_tDpOT_(ptr noundef nonnull align 1 dereferenceable(17) %0, ptr noundef nonnull align 1 dereferenceable(16) %1) unnamed_addr #6 comdat align 2 {
  %3 = alloca ptr, align 8
  %4 = alloca ptr, align 8
  store ptr %0, ptr %3, align 8, !tbaa !910
  store ptr %1, ptr %4, align 8, !tbaa !142
  %5 = load ptr, ptr %3, align 8
  %6 = load ptr, ptr %4, align 8
  call void @_ZNSt22_Optional_payload_baseISt5arrayIhLm16EEEC2IJRKS1_EEESt10in_place_tDpOT_(ptr noundef nonnull align 1 dereferenceable(17) %5, ptr noundef nonnull align 1 dereferenceable(16) %6)
  ret void
}

; Function Attrs: noinline noreturn nounwind uwtable
define linkonce_odr hidden void @__clang_call_terminate(ptr noundef %0) #13 comdat {
  %2 = call ptr @__cxa_begin_catch(ptr %0) #17
  call void @_ZSt9terminatev() #19
  unreachable
}

; Function Attrs: mustprogress uwtable
define linkonce_odr dso_local void @_ZNSt14_Optional_baseISt5arrayIhLm16EELb1ELb1EEC2IJRKS1_ETnNSt9enable_ifIX18is_constructible_vIS1_DpT_EEbE4typeELb0EEESt10in_place_tDpOS7_(ptr noundef nonnull align 1 dereferenceable(17) %0, ptr noundef nonnull align 1 dereferenceable(16) %1) unnamed_addr #2 comdat align 2 {
  %3 = alloca ptr, align 8
  %4 = alloca ptr, align 8
  store ptr %0, ptr %3, align 8, !tbaa !908
  store ptr %1, ptr %4, align 8, !tbaa !142
  %5 = load ptr, ptr %3, align 8
  %6 = getelementptr inbounds nuw %"struct.std::_Optional_base.39", ptr %5, i32 0, i32 0
  %7 = load ptr, ptr %4, align 8, !tbaa !142
  call void @_ZNSt17_Optional_payloadISt5arrayIhLm16EELb1ELb1ELb1EECI2St22_Optional_payload_baseIS1_EIJRKS1_EEESt10in_place_tDpOT_(ptr noundef nonnull align 1 dereferenceable(17) %6, ptr noundef nonnull align 1 dereferenceable(16) %7)
  ret void
}

; Function Attrs: mustprogress nounwind uwtable
define linkonce_odr dso_local void @_ZNSt8optionalISt5arrayIhLm16EEEC2IRKS1_TnNSt9enable_ifIX7__and_vISt6__not_ISt7is_sameIS2_NSt9remove_cvINSt16remove_referenceIT_E4typeEE4typeEEES7_IS8_ISt10in_place_tSF_EESt16is_constructibleIS1_JSB_EESt14is_convertibleISB_S1_EEEbE4typeELb1EEEOSB_(ptr noundef nonnull align 1 dereferenceable(17) %0, ptr noundef nonnull align 1 dereferenceable(16) %1) unnamed_addr #1 comdat align 2 personality ptr @__gxx_personality_v0 {
  %3 = alloca ptr, align 8
  %4 = alloca ptr, align 8
  store ptr %0, ptr %3, align 8, !tbaa !148
  store ptr %1, ptr %4, align 8, !tbaa !142
  %5 = load ptr, ptr %3, align 8
  %6 = load ptr, ptr %4, align 8, !tbaa !142
  invoke void @_ZNSt14_Optional_baseISt5arrayIhLm16EELb1ELb1EEC2IJRKS1_ETnNSt9enable_ifIX18is_constructible_vIS1_DpT_EEbE4typeELb0EEESt10in_place_tDpOS7_(ptr noundef nonnull align 1 dereferenceable(17) %5, ptr noundef nonnull align 1 dereferenceable(16) %6)
          to label %7 unwind label %8

7:                                                ; preds = %2
  ret void

8:                                                ; preds = %2
  %9 = landingpad { ptr, i32 }
          catch ptr null
  %10 = extractvalue { ptr, i32 } %9, 0
  call void @__clang_call_terminate(ptr %10) #19
  unreachable
}

; Function Attrs: mustprogress uwtable
define dso_local void @_ZN4Luau7CodeGen7compileERKSt5arrayIhLm16EEP9lua_StateijPNS0_16CompilationStatsE(ptr dead_on_unwind noalias writable sret(%"struct.Luau::CodeGen::CompilationResult") align 8 %0, ptr noundef nonnull align 1 dereferenceable(16) %1, ptr noundef %2, i32 noundef %3, i32 noundef %4, ptr noundef %5) #2 {
  %7 = alloca ptr, align 8
  %8 = alloca ptr, align 8
  %9 = alloca ptr, align 8
  %10 = alloca i32, align 4
  %11 = alloca i32, align 4
  %12 = alloca ptr, align 8
  %13 = alloca %"class.std::optional.38", align 1
  %14 = alloca %"struct.Luau::CodeGen::CompilationOptions", align 8
  store ptr %0, ptr %7, align 8
  store ptr %1, ptr %8, align 8, !tbaa !142
  store ptr %2, ptr %9, align 8, !tbaa !214
  store i32 %3, ptr %10, align 4, !tbaa !11
  store i32 %4, ptr %11, align 4, !tbaa !11
  store ptr %5, ptr %12, align 8, !tbaa !239
  call void @llvm.lifetime.start.p0(i64 17, ptr %13) #17
  %15 = load ptr, ptr %8, align 8, !tbaa !142
  call void @_ZNSt8optionalISt5arrayIhLm16EEEC2IRKS1_TnNSt9enable_ifIX7__and_vISt6__not_ISt7is_sameIS2_NSt9remove_cvINSt16remove_referenceIT_E4typeEE4typeEEES7_IS8_ISt10in_place_tSF_EESt16is_constructibleIS1_JSB_EESt14is_convertibleISB_S1_EEEbE4typeELb1EEEOSB_(ptr noundef nonnull align 1 dereferenceable(17) %13, ptr noundef nonnull align 1 dereferenceable(16) %15) #17
  %16 = load ptr, ptr %9, align 8, !tbaa !214
  %17 = load i32, ptr %10, align 4, !tbaa !11
  call void @llvm.lifetime.start.p0(i64 96, ptr %14) #17
  %18 = getelementptr inbounds nuw %"struct.Luau::CodeGen::CompilationOptions", ptr %14, i32 0, i32 0
  %19 = load i32, ptr %11, align 4, !tbaa !11
  store i32 %19, ptr %18, align 8, !tbaa !243
  %20 = getelementptr inbounds nuw %"struct.Luau::CodeGen::CompilationOptions", ptr %14, i32 0, i32 1
  %21 = getelementptr inbounds nuw %"struct.Luau::CodeGen::HostIrHooks", ptr %20, i32 0, i32 0
  store ptr null, ptr %21, align 8, !tbaa !273
  %22 = getelementptr inbounds nuw %"struct.Luau::CodeGen::HostIrHooks", ptr %20, i32 0, i32 1
  store ptr null, ptr %22, align 8, !tbaa !274
  %23 = getelementptr inbounds nuw %"struct.Luau::CodeGen::HostIrHooks", ptr %20, i32 0, i32 2
  store ptr null, ptr %23, align 8, !tbaa !275
  %24 = getelementptr inbounds nuw %"struct.Luau::CodeGen::HostIrHooks", ptr %20, i32 0, i32 3
  store ptr null, ptr %24, align 8, !tbaa !276
  %25 = getelementptr inbounds nuw %"struct.Luau::CodeGen::HostIrHooks", ptr %20, i32 0, i32 4
  store ptr null, ptr %25, align 8, !tbaa !277
  %26 = getelementptr inbounds nuw %"struct.Luau::CodeGen::HostIrHooks", ptr %20, i32 0, i32 5
  store ptr null, ptr %26, align 8, !tbaa !278
  %27 = getelementptr inbounds nuw %"struct.Luau::CodeGen::HostIrHooks", ptr %20, i32 0, i32 6
  store ptr null, ptr %27, align 8, !tbaa !279
  %28 = getelementptr inbounds nuw %"struct.Luau::CodeGen::HostIrHooks", ptr %20, i32 0, i32 7
  store ptr null, ptr %28, align 8, !tbaa !280
  %29 = getelementptr inbounds nuw %"struct.Luau::CodeGen::HostIrHooks", ptr %20, i32 0, i32 8
  store ptr null, ptr %29, align 8, !tbaa !281
  %30 = getelementptr inbounds nuw %"struct.Luau::CodeGen::HostIrHooks", ptr %20, i32 0, i32 9
  store ptr null, ptr %30, align 8, !tbaa !282
  %31 = getelementptr inbounds nuw %"struct.Luau::CodeGen::CompilationOptions", ptr %14, i32 0, i32 2
  store ptr null, ptr %31, align 8, !tbaa !283
  %32 = load ptr, ptr %12, align 8, !tbaa !239
  call void @_ZN4Luau7CodeGenL15compileInternalERKSt8optionalISt5arrayIhLm16EEEP9lua_StateiRKNS0_18CompilationOptionsEPNS0_16CompilationStatsE(ptr dead_on_unwind writable sret(%"struct.Luau::CodeGen::CompilationResult") align 8 %0, ptr noundef nonnull align 1 dereferenceable(17) %13, ptr noundef %16, i32 noundef %17, ptr noundef nonnull align 8 dereferenceable(96) %14, ptr noundef %32)
  call void @llvm.lifetime.end.p0(i64 96, ptr %14) #17
  call void @llvm.lifetime.end.p0(i64 17, ptr %13) #17
  ret void
}